; Function Attrs: mustprogress nounwind uwtable
define hidden void @_ZN14XPageAllocator12destroy_pageEP5XPage(ptr noundef nonnull align 8 dereferenceable(609) %0, ptr noundef %1) local_unnamed_addr #1 align 2 {
  %3 = alloca ptr, align 8
  %4 = getelementptr inbounds i8, ptr %0, i64 104
  %5 = getelementptr inbounds i8, ptr %1, i64 8
  tail call void @_ZN21XVirtualMemoryManager4freeERK14XVirtualMemory(ptr noundef nonnull align 8 dereferenceable(121) %4, ptr noundef nonnull align 8 dereferenceable(16) %5) #14
  %6 = getelementptr inbounds i8, ptr %0, i64 232
  %7 = getelementptr inbounds i8, ptr %1, i64 104
  tail call void @_ZN22XPhysicalMemoryManager4freeERK15XPhysicalMemory(ptr noundef nonnull align 8 dereferenceable(160) %6, ptr noundef nonnull align 8 dereferenceable(16) %7) #14
  %8 = getelementptr inbounds i8, ptr %0, i64 536
  call void @llvm.lifetime.start.p0(i64 8, ptr nonnull %3)
  store ptr %1, ptr %3, align 8
  %9 = load ptr, ptr %8, align 8
  %.not.i.i.i = icmp eq ptr %9, null
  br i1 %.not.i.i.i, label %_ZN7XLockerI5XLockEC2EPS0_.exit.i.i, label %10

10:                                               ; preds = %2
  %11 = tail call i32 @pthread_mutex_lock(ptr noundef nonnull %9) #14
  br label %_ZN7XLockerI5XLockEC2EPS0_.exit.i.i

_ZN7XLockerI5XLockEC2EPS0_.exit.i.i:              ; preds = %10, %2
  %12 = getelementptr inbounds i8, ptr %0, i64 544
  %13 = load i64, ptr %12, align 8
  %.not.i.i = icmp ne i64 %13, 0
  br i1 %.not.i.i, label %14, label %17

14:                                               ; preds = %_ZN7XLockerI5XLockEC2EPS0_.exit.i.i
  %15 = getelementptr inbounds i8, ptr %0, i64 552
  %16 = call noundef i32 @_ZN26GrowableArrayWithAllocatorIP5XPage18GrowableArrayCHeapIS1_L8MEMFLAGS5EEE6appendERKS1_(ptr noundef nonnull align 8 dereferenceable(16) %15, ptr noundef nonnull align 8 dereferenceable(8) %3)
  br label %17

17:                                               ; preds = %14, %_ZN7XLockerI5XLockEC2EPS0_.exit.i.i
  br i1 %.not.i.i.i, label %_ZN15XSafeDeleteImplI5XPageE15deferred_deleteEPS0_.exit.i, label %18

18:                                               ; preds = %17
  %19 = call i32 @pthread_mutex_unlock(ptr noundef nonnull %9) #14
  br label %_ZN15XSafeDeleteImplI5XPageE15deferred_deleteEPS0_.exit.i

_ZN15XSafeDeleteImplI5XPageE15deferred_deleteEPS0_.exit.i: ; preds = %18, %17
  call void @llvm.lifetime.end.p0(i64 8, ptr nonnull %3)
  %20 = icmp eq ptr %1, null
  %or.cond.i = or i1 %20, %.not.i.i
  br i1 %or.cond.i, label %_ZN15XSafeDeleteImplI5XPageEclEPS0_.exit, label %21

21:                                               ; preds = %_ZN15XSafeDeleteImplI5XPageE15deferred_deleteEPS0_.exit.i
  call void @_ZN5XPageD1Ev(ptr noundef nonnull align 8 dereferenceable(136) %1) #14
  call void @_Z8FreeHeapPv(ptr noundef nonnull %1) #14
  br label %_ZN15XSafeDeleteImplI5XPageEclEPS0_.exit

_ZN15XSafeDeleteImplI5XPageEclEPS0_.exit:         ; preds = %_ZN15XSafeDeleteImplI5XPageE15deferred_deleteEPS0_.exit.i, %21
  ret void
}